target datalayout = "e-m:e-p270:32:32-p271:32:32-p272:64:64-i64:64-i128:128-f80:128-n8:16:32:64-S128"
target triple = "x86_64-pc-linux-gnu"

%"struct.Luau::AstNameTable::Entry" = type { %"struct.Luau::AstName", i32, i32 }
%"struct.Luau::AstName" = type { ptr }
%"class.Luau::AstNameTable" = type { %"class.Luau::DenseHashSet", ptr }
%"class.Luau::DenseHashSet" = type { %"class.Luau::detail::DenseHashTable" }
%"class.Luau::detail::DenseHashTable" = type <{ ptr, i64, i64, %"struct.Luau::AstNameTable::Entry", [8 x i8] }>
%"struct.std::pair" = type <{ %"struct.Luau::AstName", i32, [4 x i8] }>

; Function Attrs: mustprogress nounwind uwtable
define linkonce_odr dso_local void @_ZNSt4pairIN4Luau7AstNameENS0_6Lexeme4TypeEEC2IS1_S3_TnNSt9enable_ifIXaaclsr5_PCCPE22_MoveConstructiblePairIT_T0_EEclsr5_PCCPE30_ImplicitlyMoveConvertiblePairIS7_S8_EEEbE4typeELb1EEEOS7_OS8_(ptr noundef nonnull align 8 dereferenceable(12) %0, ptr noundef nonnull align 8 dereferenceable(8) %1, ptr noundef nonnull align 4 dereferenceable(4) %2) unnamed_addr #2 comdat align 2 {
  %4 = alloca ptr, align 8
  %5 = alloca ptr, align 8
  %6 = alloca ptr, align 8
  store ptr %0, ptr %4, align 8, !tbaa !131
  store ptr %1, ptr %5, align 8, !tbaa !57
  store ptr %2, ptr %6, align 8, !tbaa !69
  %7 = load ptr, ptr %4, align 8
  %8 = getelementptr inbounds nuw %"struct.std::pair", ptr %7, i32 0, i32 0
  %9 = load ptr, ptr %5, align 8, !tbaa !57
  call void @llvm.memcpy.p0.p0.i64(ptr align 8 %8, ptr align 8 %9, i64 8, i1 false), !tbaa.struct !62
  %10 = getelementptr inbounds nuw %"struct.std::pair", ptr %7, i32 0, i32 1
  %11 = load ptr, ptr %6, align 8, !tbaa !69
  %12 = load i32, ptr %11, align 4, !tbaa !26
  store i32 %12, ptr %10, align 8, !tbaa !100
  ret void
}

; Function Attrs: mustprogress nounwind uwtable
define linkonce_odr dso_local void @_ZNSt4pairIN4Luau7AstNameENS0_6Lexeme4TypeEEC2IS1_S3_TnNSt9enable_ifIXaaclsr5_PCCPE18_ConstructiblePairIT_T0_EEclsr5_PCCPE26_ImplicitlyConvertiblePairIS7_S8_EEEbE4typeELb1EEERKS1_RKS3_(ptr noundef nonnull align 8 dereferenceable(12) %0, ptr noundef nonnull align 8 dereferenceable(8) %1, ptr noundef nonnull align 4 dereferenceable(4) %2) unnamed_addr #2 comdat align 2 {
  %4 = alloca ptr, align 8
  %5 = alloca ptr, align 8
  %6 = alloca ptr, align 8
  store ptr %0, ptr %4, align 8, !tbaa !131
  store ptr %1, ptr %5, align 8, !tbaa !57
  store ptr %2, ptr %6, align 8, !tbaa !69
  %7 = load ptr, ptr %4, align 8
  %8 = getelementptr inbounds nuw %"struct.std::pair", ptr %7, i32 0, i32 0
  %9 = load ptr, ptr %5, align 8, !tbaa !57
  call void @llvm.memcpy.p0.p0.i64(ptr align 8 %8, ptr align 8 %9, i64 8, i1 false), !tbaa.struct !62
  %10 = getelementptr inbounds nuw %"struct.std::pair", ptr %7, i32 0, i32 1
  %11 = load ptr, ptr %6, align 8, !tbaa !69
  %12 = load i32, ptr %11, align 4, !tbaa !26
  store i32 %12, ptr %10, align 8, !tbaa !100
  ret void
}

; Function Attrs: mustprogress uwtable
define linkonce_odr dso_local { ptr, i32 } @_ZSt9make_pairIN4Luau7AstNameENS0_6Lexeme4TypeEESt4pairINSt25__strip_reference_wrapperINSt5decayIT_E4typeEE6__typeENS5_INS6_IT0_E4typeEE6__typeEEOS7_OSC_(ptr noundef nonnull align 8 dereferenceable(8) %0, ptr noundef nonnull align 4 dereferenceable(4) %1) #4 comdat {
  %3 = alloca %"struct.std::pair", align 8
  %4 = alloca ptr, align 8
  %5 = alloca ptr, align 8
  store ptr %0, ptr %4, align 8, !tbaa !57
  store ptr %1, ptr %5, align 8, !tbaa !69
  %6 = load ptr, ptr %4, align 8, !tbaa !57
  %7 = load ptr, ptr %5, align 8, !tbaa !69
  call void @_ZNSt4pairIN4Luau7AstNameENS0_6Lexeme4TypeEEC2IS1_S3_TnNSt9enable_ifIXaaclsr5_PCCPE22_MoveConstructiblePairIT_T0_EEclsr5_PCCPE30_ImplicitlyMoveConvertiblePairIS7_S8_EEEbE4typeELb1EEEOS7_OS8_(ptr noundef nonnull align 8 dereferenceable(12) %3, ptr noundef nonnull align 8 dereferenceable(8) %6, ptr noundef nonnull align 4 dereferenceable(4) %7)
  %8 = load { ptr, i32 }, ptr %3, align 8
  ret { ptr, i32 } %8
}

; Function Attrs: mustprogress nounwind uwtable
define linkonce_odr dso_local void @_ZN4Luau7AstNameC2Ev(ptr noundef nonnull align 8 dereferenceable(8) %0) unnamed_addr #2 comdat align 2 {
  %2 = alloca ptr, align 8
  store ptr %0, ptr %2, align 8, !tbaa !57
  %3 = load ptr, ptr %2, align 8
  %4 = getelementptr inbounds nuw %"struct.Luau::AstName", ptr %3, i32 0, i32 0
  store ptr null, ptr %4, align 8, !tbaa !59
  ret void
}

; Function Attrs: mustprogress uwtable
define linkonce_odr dso_local { ptr, i32 } @_ZSt9make_pairIRKN4Luau7AstNameERKNS0_6Lexeme4TypeEESt4pairINSt25__strip_reference_wrapperINSt5decayIT_E4typeEE6__typeENS9_INSA_IT0_E4typeEE6__typeEEOSB_OSG_(ptr noundef nonnull align 8 dereferenceable(8) %0, ptr noundef nonnull align 4 dereferenceable(4) %1) #4 comdat {
  %3 = alloca %"struct.std::pair", align 8
  %4 = alloca ptr, align 8
  %5 = alloca ptr, align 8
  store ptr %0, ptr %4, align 8, !tbaa !57
  store ptr %1, ptr %5, align 8, !tbaa !69
  %6 = load ptr, ptr %4, align 8, !tbaa !57
  %7 = load ptr, ptr %5, align 8, !tbaa !69
  call void @_ZNSt4pairIN4Luau7AstNameENS0_6Lexeme4TypeEEC2IS1_S3_TnNSt9enable_ifIXaaclsr5_PCCPE18_ConstructiblePairIT_T0_EEclsr5_PCCPE26_ImplicitlyConvertiblePairIS7_S8_EEEbE4typeELb1EEERKS1_RKS3_(ptr noundef nonnull align 8 dereferenceable(12) %3, ptr noundef nonnull align 8 dereferenceable(8) %6, ptr noundef nonnull align 4 dereferenceable(4) %7)
  %8 = load { ptr, i32 }, ptr %3, align 8
  ret { ptr, i32 } %8
}

; Function Attrs: mustprogress uwtable
define linkonce_odr dso_local noundef ptr @_ZNK4Luau12DenseHashSetINS_12AstNameTable5EntryENS1_9EntryHashESt8equal_toIS2_EE4findERKS2_(ptr noundef nonnull align 8 dereferenceable(48) %0, ptr noundef nonnull align 8 dereferenceable(16) %1) #4 comdat align 2 {
  %3 = alloca ptr, align 8
  %4 = alloca ptr, align 8
  store ptr %0, ptr %3, align 8, !tbaa !60
  store ptr %1, ptr %4, align 8, !tbaa !41
  %5 = load ptr, ptr %3, align 8
  %6 = getelementptr inbounds nuw %"class.Luau::DenseHashSet", ptr %5, i32 0, i32 0
  %7 = load ptr, ptr %4, align 8, !tbaa !41
  %8 = call noundef ptr @_ZNK4Luau6detail14DenseHashTableINS_12AstNameTable5EntryES3_S3_NS0_16ItemInterfaceSetIS3_EENS2_9EntryHashESt8equal_toIS3_EE4findERKS3_(ptr noundef nonnull align 8 dereferenceable(42) %6, ptr noundef nonnull align 8 dereferenceable(16) %7)
  ret ptr %8
}

; Function Attrs: mustprogress nounwind uwtable
define linkonce_odr dso_local void @_ZN4Luau7AstNameC2EPKc(ptr noundef nonnull align 8 dereferenceable(8) %0, ptr noundef %1) unnamed_addr #2 comdat align 2 {
  %3 = alloca ptr, align 8
  %4 = alloca ptr, align 8
  store ptr %0, ptr %3, align 8, !tbaa !57
  store ptr %1, ptr %4, align 8, !tbaa !11
  %5 = load ptr, ptr %3, align 8
  %6 = getelementptr inbounds nuw %"struct.Luau::AstName", ptr %5, i32 0, i32 0
  %7 = load ptr, ptr %4, align 8, !tbaa !11
  store ptr %7, ptr %6, align 8, !tbaa !59
  ret void
}

; Function Attrs: mustprogress uwtable
define dso_local { ptr, i32 } @_ZNK4Luau12AstNameTable11getWithTypeEPKcm(ptr noundef nonnull align 8 dereferenceable(56) %0, ptr noundef %1, i64 noundef %2) #4 align 2 {
  %4 = alloca %"struct.std::pair", align 8
  %5 = alloca ptr, align 8
  %6 = alloca ptr, align 8
  %7 = alloca i64, align 8
  %8 = alloca ptr, align 8
  %9 = alloca %"struct.Luau::AstNameTable::Entry", align 8
  %10 = alloca { ptr, i32 }, align 8
  %11 = alloca i32, align 4
  %12 = alloca %"struct.Luau::AstName", align 8
  %13 = alloca i32, align 4
  %14 = alloca { ptr, i32 }, align 8
  store ptr %0, ptr %5, align 8, !tbaa !51
  store ptr %1, ptr %6, align 8, !tbaa !11
  store i64 %2, ptr %7, align 8, !tbaa !35
  %15 = load ptr, ptr %5, align 8
  call void @llvm.lifetime.start.p0(i64 8, ptr %8) #18
  %16 = getelementptr inbounds nuw %"class.Luau::AstNameTable", ptr %15, i32 0, i32 0
  call void @llvm.lifetime.start.p0(i64 16, ptr %9) #18
  %17 = getelementptr inbounds nuw %"struct.Luau::AstNameTable::Entry", ptr %9, i32 0, i32 0
  %18 = load ptr, ptr %6, align 8, !tbaa !11
  call void @_ZN4Luau7AstNameC2EPKc(ptr noundef nonnull align 8 dereferenceable(8) %17, ptr noundef %18)
  %19 = getelementptr inbounds nuw %"struct.Luau::AstNameTable::Entry", ptr %9, i32 0, i32 1
  %20 = load i64, ptr %7, align 8, !tbaa !35
  %21 = trunc i64 %20 to i32
  store i32 %21, ptr %19, align 8, !tbaa !43
  %22 = getelementptr inbounds nuw %"struct.Luau::AstNameTable::Entry", ptr %9, i32 0, i32 2
  store i32 0, ptr %22, align 4, !tbaa !55
  %23 = call noundef ptr @_ZNK4Luau12DenseHashSetINS_12AstNameTable5EntryENS1_9EntryHashESt8equal_toIS2_EE4findERKS2_(ptr noundef nonnull align 8 dereferenceable(48) %16, ptr noundef nonnull align 8 dereferenceable(16) %9)
  call void @llvm.lifetime.end.p0(i64 16, ptr %9) #18
  store ptr %23, ptr %8, align 8, !tbaa !41
  %24 = load ptr, ptr %8, align 8, !tbaa !41
  %25 = icmp ne ptr %24, null
  br i1 %25, label %26, label %32

26:                                               ; preds = %3
  %27 = load ptr, ptr %8, align 8, !tbaa !41
  %28 = getelementptr inbounds nuw %"struct.Luau::AstNameTable::Entry", ptr %27, i32 0, i32 0
  %29 = load ptr, ptr %8, align 8, !tbaa !41
  %30 = getelementptr inbounds nuw %"struct.Luau::AstNameTable::Entry", ptr %29, i32 0, i32 2
  %31 = call { ptr, i32 } @_ZSt9make_pairIRKN4Luau7AstNameERKNS0_6Lexeme4TypeEESt4pairINSt25__strip_reference_wrapperINSt5decayIT_E4typeEE6__typeENS9_INSA_IT0_E4typeEE6__typeEEOSB_OSG_(ptr noundef nonnull align 8 dereferenceable(8) %28, ptr noundef nonnull align 4 dereferenceable(4) %30)
  store { ptr, i32 } %31, ptr %10, align 8
  call void @llvm.memcpy.p0.p0.i64(ptr align 8 %4, ptr align 8 %10, i64 12, i1 false)
  store i32 1, ptr %11, align 4
  br label %33

32:                                               ; preds = %3
  store i32 0, ptr %11, align 4
  br label %33

33:                                               ; preds = %32, %26
  call void @llvm.lifetime.end.p0(i64 8, ptr %8) #18
  %34 = load i32, ptr %11, align 4
  switch i32 %34, label %39 [
    i32 0, label %35
    i32 1, label %37
  ]

35:                                               ; preds = %33
  call void @llvm.lifetime.start.p0(i64 8, ptr %12) #18
  call void @_ZN4Luau7AstNameC2Ev(ptr noundef nonnull align 8 dereferenceable(8) %12)
  call void @llvm.lifetime.start.p0(i64 4, ptr %13) #18
  store i32 281, ptr %13, align 4, !tbaa !26
  %36 = call { ptr, i32 } @_ZSt9make_pairIN4Luau7AstNameENS0_6Lexeme4TypeEESt4pairINSt25__strip_reference_wrapperINSt5decayIT_E4typeEE6__typeENS5_INS6_IT0_E4typeEE6__typeEEOS7_OSC_(ptr noundef nonnull align 8 dereferenceable(8) %12, ptr noundef nonnull align 4 dereferenceable(4) %13)
  store { ptr, i32 } %36, ptr %14, align 8
  call void @llvm.memcpy.p0.p0.i64(ptr align 8 %4, ptr align 8 %14, i64 12, i1 false)
  call void @llvm.lifetime.end.p0(i64 4, ptr %13) #18
  call void @llvm.lifetime.end.p0(i64 8, ptr %12) #18
  br label %37

37:                                               ; preds = %35, %33
  %38 = load { ptr, i32 }, ptr %4, align 8
  ret { ptr, i32 } %38

39:                                               ; preds = %33
  unreachable
}

; Function Attrs: mustprogress uwtable
define dso_local ptr @_ZNK4Luau12AstNameTable3getEPKc(ptr noundef nonnull align 8 dereferenceable(56) %0, ptr noundef %1) #4 align 2 {
  %3 = alloca %"struct.Luau::AstName", align 8
  %4 = alloca ptr, align 8
  %5 = alloca ptr, align 8
  %6 = alloca %"struct.std::pair", align 8
  %7 = alloca { ptr, i32 }, align 8
  store ptr %0, ptr %4, align 8, !tbaa !51
  store ptr %1, ptr %5, align 8, !tbaa !11
  %8 = load ptr, ptr %4, align 8
  call void @llvm.lifetime.start.p0(i64 16, ptr %6) #18
  %9 = load ptr, ptr %5, align 8, !tbaa !11
  %10 = load ptr, ptr %5, align 8, !tbaa !11
  %11 = call i64 @strlen(ptr noundef %10) #20
  %12 = call { ptr, i32 } @_ZNK4Luau12AstNameTable11getWithTypeEPKcm(ptr noundef nonnull align 8 dereferenceable(56) %8, ptr noundef %9, i64 noundef %11)
  store { ptr, i32 } %12, ptr %7, align 8
  call void @llvm.memcpy.p0.p0.i64(ptr align 8 %6, ptr align 8 %7, i64 12, i1 false)
  %13 = getelementptr inbounds nuw %"struct.std::pair", ptr %6, i32 0, i32 0
  call void @llvm.memcpy.p0.p0.i64(ptr align 8 %3, ptr align 8 %13, i64 8, i1 false), !tbaa.struct !62
  call void @llvm.lifetime.end.p0(i64 16, ptr %6) #18
  %14 = getelementptr inbounds nuw %"struct.Luau::AstName", ptr %3, i32 0, i32 0
  %15 = load ptr, ptr %14, align 8
  ret ptr %15
}