; Function Attrs: mustprogress uwtable
define dso_local ptr @_ZNK4Luau12AstNameTable3getEPKc(ptr noundef nonnull align 8 dereferenceable(56) %0, ptr noundef %1) local_unnamed_addr #5 align 2 {
  %3 = alloca %"struct.Luau::AstNameTable::Entry", align 8
  %4 = tail call i64 @strlen(ptr noundef nonnull dereferenceable(1) %1) #27
  call void @llvm.lifetime.start.p0(i64 16, ptr nonnull %3) #24
  store ptr %1, ptr %3, align 8, !tbaa !42
  %5 = getelementptr inbounds nuw i8, ptr %3, i64 8
  %6 = trunc i64 %4 to i32
  store i32 %6, ptr %5, align 8, !tbaa !26
  %7 = getelementptr inbounds nuw i8, ptr %3, i64 12
  store i32 0, ptr %7, align 4, !tbaa !43
  %8 = call noundef ptr @_ZNK4Luau6detail14DenseHashTableINS_12AstNameTable5EntryES3_S3_NS0_16ItemInterfaceSetIS3_EENS2_9EntryHashESt8equal_toIS3_EE4findERKS3_(ptr noundef nonnull align 8 dereferenceable(56) %0, ptr noundef nonnull align 8 dereferenceable(16) %3)
  call void @llvm.lifetime.end.p0(i64 16, ptr nonnull %3) #24
  %.not.not.i = icmp eq ptr %8, null
  br i1 %.not.not.i, label %_ZNK4Luau12AstNameTable11getWithTypeEPKcm.exit, label %9

9:                                                ; preds = %2
  %10 = load i64, ptr %8, align 8, !tbaa !25
  %11 = inttoptr i64 %10 to ptr
  br label %_ZNK4Luau12AstNameTable11getWithTypeEPKcm.exit

_ZNK4Luau12AstNameTable11getWithTypeEPKcm.exit:   ; preds = %2, %9
  %.sroa.010.1.i = phi ptr [ %11, %9 ], [ null, %2 ]
  ret ptr %.sroa.010.1.i
}